(dp0
(I0
VSi
p1
I0
g1
I0
tp2
(lp3
F0.3619854106045313
aF0.46804413659225635
aF0.4236290926368648
as(I0
g1
I0
g1
I1
tp4
(lp5
F0.0
aF0.0
aF0.0
as(I0
g1
I0
g1
I2
tp6
(lp7
F0.0
aF0.0
aF0.0
as(I1
g1
I1
g1
I0
tp8
(lp9
F-0.3619854106045313
aF-0.46804413659225635
aF-0.4236290926368648
as(I1
g1
I1
g1
I1
tp10
(lp11
F0.0
aF0.0
aF0.0
as(I1
g1
I1
g1
I2
tp12
(lp13
F0.0
aF0.0
aF0.0
as.